target datalayout = "e-m:e-p270:32:32-p271:32:32-p272:64:64-i64:64-i128:128-f80:128-n8:16:32:64-S128"
target triple = "x86_64-pc-linux-gnu"

%"class.std::vector" = type { %"struct.std::_Vector_base" }
%"struct.std::_Vector_base" = type { %"struct.std::_Vector_base<unsigned char, std::allocator<unsigned char>>::_Vector_impl" }
%"struct.std::_Vector_base<unsigned char, std::allocator<unsigned char>>::_Vector_impl" = type { %"struct.std::_Vector_base<unsigned char, std::allocator<unsigned char>>::_Vector_impl_data" }
%"struct.std::_Vector_base<unsigned char, std::allocator<unsigned char>>::_Vector_impl_data" = type { ptr, ptr, ptr }
%class.anon.46 = type { ptr }
%class.anon.47 = type { i8 }

@_ZZ14GetGrey8ValuesvE12_grey8Values = internal global %"class.std::vector" zeroinitializer, align 8
@_ZSt15__once_callable = external thread_local global ptr, align 8

; Function Attrs: mustprogress nounwind uwtable
define linkonce_odr dso_local noundef nonnull align 1 dereferenceable(1) ptr @_ZNSt6vectorIhSaIhEEixEm(ptr noundef nonnull align 8 dereferenceable(24) %0, i64 noundef %1) #5 comdat align 2 {
  %3 = alloca ptr, align 8
  %4 = alloca i64, align 8
  store ptr %0, ptr %3, align 8
  store i64 %1, ptr %4, align 8
  %5 = load ptr, ptr %3, align 8
  %6 = getelementptr inbounds nuw %"struct.std::_Vector_base", ptr %5, i32 0, i32 0
  %7 = getelementptr inbounds nuw %"struct.std::_Vector_base<unsigned char, std::allocator<unsigned char>>::_Vector_impl_data", ptr %6, i32 0, i32 0
  %8 = load ptr, ptr %7, align 8
  %9 = load i64, ptr %4, align 8
  %10 = getelementptr inbounds i8, ptr %8, i64 %9
  ret ptr %10
}

; Function Attrs: mustprogress nounwind uwtable
define internal void @"_ZZ14GetGrey8ValuesvENK3$_0clEv"(ptr noundef nonnull align 1 dereferenceable(1) %0) #5 align 2 {
  %2 = alloca ptr, align 8
  %3 = alloca i32, align 4
  %4 = alloca i32, align 4
  %5 = alloca i32, align 4
  %6 = alloca i32, align 4
  %7 = alloca i8, align 1
  %8 = alloca i32, align 4
  %9 = alloca i32, align 4
  store ptr %0, ptr %2, align 8
  store i32 0, ptr %3, align 4
  br label %10

10:                                               ; preds = %58, %1
  %11 = load i32, ptr %3, align 4
  %12 = icmp slt i32 %11, 256
  br i1 %12, label %13, label %61

13:                                               ; preds = %10
  store i32 0, ptr %4, align 4
  br label %14

14:                                               ; preds = %54, %13
  %15 = load i32, ptr %4, align 4
  %16 = icmp slt i32 %15, 256
  br i1 %16, label %17, label %57

17:                                               ; preds = %14
  %18 = load i32, ptr %4, align 4
  %19 = and i32 %18, 224
  store i32 %19, ptr %5, align 4
  %20 = load i32, ptr %3, align 4
  %21 = and i32 %20, 224
  store i32 %21, ptr %6, align 4
  %22 = load i32, ptr %5, align 4
  %23 = load i32, ptr %6, align 4
  %24 = add nsw i32 %22, %23
  %25 = and i32 %24, 255
  %26 = trunc i32 %25 to i8
  store i8 %26, ptr %7, align 1
  %27 = load i32, ptr %3, align 4
  %28 = mul nsw i32 %27, 256
  %29 = load i32, ptr %4, align 4
  %30 = add nsw i32 %28, %29
  store i32 %30, ptr %8, align 4
  %31 = load i32, ptr %3, align 4
  %32 = sdiv i32 %31, 32
  %33 = mul nsw i32 %32, 256
  %34 = load i32, ptr %4, align 4
  %35 = sdiv i32 %34, 32
  %36 = add nsw i32 %33, %35
  store i32 %36, ptr %9, align 4
  %37 = load i32, ptr %9, align 4
  %38 = and i32 %37, 1
  %39 = icmp ne i32 %38, 0
  br i1 %39, label %40, label %45

40:                                               ; preds = %17
  %41 = load i8, ptr %7, align 1
  %42 = load i32, ptr %8, align 4
  %43 = sext i32 %42 to i64
  %44 = call noundef nonnull align 1 dereferenceable(1) ptr @_ZNSt6vectorIhSaIhEEixEm(ptr noundef nonnull align 8 dereferenceable(24) @_ZZ14GetGrey8ValuesvE12_grey8Values, i64 noundef %43) #3
  store i8 %41, ptr %44, align 1
  br label %53

45:                                               ; preds = %17
  %46 = load i8, ptr %7, align 1
  %47 = zext i8 %46 to i32
  %48 = sub nsw i32 255, %47
  %49 = trunc i32 %48 to i8
  %50 = load i32, ptr %8, align 4
  %51 = sext i32 %50 to i64
  %52 = call noundef nonnull align 1 dereferenceable(1) ptr @_ZNSt6vectorIhSaIhEEixEm(ptr noundef nonnull align 8 dereferenceable(24) @_ZZ14GetGrey8ValuesvE12_grey8Values, i64 noundef %51) #3
  store i8 %49, ptr %52, align 1
  br label %53

53:                                               ; preds = %45, %40
  br label %54

54:                                               ; preds = %53
  %55 = load i32, ptr %4, align 4
  %56 = add nsw i32 %55, 1
  store i32 %56, ptr %4, align 4
  br label %14, !llvm.loop !13

57:                                               ; preds = %14
  br label %58

58:                                               ; preds = %57
  %59 = load i32, ptr %3, align 4
  %60 = add nsw i32 %59, 1
  store i32 %60, ptr %3, align 4
  br label %10, !llvm.loop !14

61:                                               ; preds = %10
  ret void
}

; Function Attrs: mustprogress uwtable
define internal void @"_ZSt13__invoke_implIvZ14GetGrey8ValuesvE3$_0JEET_St14__invoke_otherOT0_DpOT1_"(ptr noundef nonnull align 1 dereferenceable(1) %0) #4 {
  %2 = alloca ptr, align 8
  store ptr %0, ptr %2, align 8
  %3 = load ptr, ptr %2, align 8
  call void @"_ZZ14GetGrey8ValuesvENK3$_0clEv"(ptr noundef nonnull align 1 dereferenceable(1) %3)
  ret void
}

; Function Attrs: mustprogress uwtable
define internal void @"_ZSt8__invokeIZ14GetGrey8ValuesvE3$_0JEENSt15__invoke_resultIT_JDpT0_EE4typeEOS2_DpOS3_"(ptr noundef nonnull align 1 dereferenceable(1) %0) #4 {
  %2 = alloca ptr, align 8
  store ptr %0, ptr %2, align 8
  %3 = load ptr, ptr %2, align 8
  call void @"_ZSt13__invoke_implIvZ14GetGrey8ValuesvE3$_0JEET_St14__invoke_otherOT0_DpOT1_"(ptr noundef nonnull align 1 dereferenceable(1) %3)
  ret void
}

; Function Attrs: mustprogress uwtable
define internal void @"_ZZSt9call_onceIZ14GetGrey8ValuesvE3$_0JEEvRSt9once_flagOT_DpOT0_ENKUlvE_clEv"(ptr noundef nonnull align 8 dereferenceable(8) %0) #4 align 2 {
  %2 = alloca ptr, align 8
  store ptr %0, ptr %2, align 8
  %3 = load ptr, ptr %2, align 8
  %4 = getelementptr inbounds nuw %class.anon.46, ptr %3, i32 0, i32 0
  %5 = load ptr, ptr %4, align 8
  call void @"_ZSt8__invokeIZ14GetGrey8ValuesvE3$_0JEENSt15__invoke_resultIT_JDpT0_EE4typeEOS2_DpOS3_"(ptr noundef nonnull align 1 dereferenceable(1) %5)
  ret void
}

; Function Attrs: mustprogress uwtable
define internal void @"_ZZNSt9once_flag18_Prepare_executionC1IZSt9call_onceIZ14GetGrey8ValuesvE3$_0JEEvRS_OT_DpOT0_EUlvE_EERS5_ENKUlvE_clEv"(ptr noundef nonnull align 1 dereferenceable(1) %0) #4 align 2 {
  %2 = alloca ptr, align 8
  store ptr %0, ptr %2, align 8
  %3 = call align 8 ptr @llvm.threadlocal.address.p0(ptr align 8 @_ZSt15__once_callable)
  %4 = load ptr, ptr %3, align 8
  call void @"_ZZSt9call_onceIZ14GetGrey8ValuesvE3$_0JEEvRSt9once_flagOT_DpOT0_ENKUlvE_clEv"(ptr noundef nonnull align 8 dereferenceable(8) %4)
  ret void
}

; Function Attrs: mustprogress uwtable
define internal void @"_ZZNSt9once_flag18_Prepare_executionC1IZSt9call_onceIZ14GetGrey8ValuesvE3$_0JEEvRS_OT_DpOT0_EUlvE_EERS5_ENUlvE_8__invokeEv"() #4 align 2 {
  %1 = alloca %class.anon.47, align 1
  call void @"_ZZNSt9once_flag18_Prepare_executionC1IZSt9call_onceIZ14GetGrey8ValuesvE3$_0JEEvRS_OT_DpOT0_EUlvE_EERS5_ENKUlvE_clEv"(ptr noundef nonnull align 1 dereferenceable(1) %1)
  ret void
}