; Function Attrs: mustprogress nofree norecurse nosync nounwind memory(readwrite, argmem: write, inaccessiblemem: none) uwtable
define internal void @"_ZZNSt9once_flag18_Prepare_executionC1IZSt9call_onceIZ14GetGrey8ValuesvE3$_0JEEvRS_OT_DpOT0_EUlvE_EERS5_ENUlvE_8__invokeEv"() #14 align 2 {
  br label %.preheader.i.i.i.i.i

.preheader.i.i.i.i.i:                             ; preds = %14, %0
  %indvars.iv4.i.i.i.i.i = phi i64 [ 0, %0 ], [ %indvars.iv.next5.i.i.i.i.i, %14 ]
  %1 = and i64 %indvars.iv4.i.i.i.i.i, 224
  %2 = shl nuw nsw i64 %indvars.iv4.i.i.i.i.i, 8
  br label %3

3:                                                ; preds = %3, %.preheader.i.i.i.i.i
  %indvars.iv.i.i.i.i.i = phi i64 [ 0, %.preheader.i.i.i.i.i ], [ %indvars.iv.next.i.i.i.i.i, %3 ]
  %4 = add nuw nsw i64 %indvars.iv.i.i.i.i.i, %1
  %5 = trunc i64 %4 to i8
  %6 = and i8 %5, -32
  %7 = trunc i64 %indvars.iv.i.i.i.i.i to i8
  %8 = lshr i8 %7, 5
  %9 = and i8 %8, 1
  %10 = add nsw i8 %9, -1
  %.sink.i.i.i.i.i = xor i8 %10, %6
  %11 = load ptr, ptr @_ZZ14GetGrey8ValuesvE12_grey8Values, align 8
  %12 = getelementptr inbounds nuw i8, ptr %11, i64 %indvars.iv.i.i.i.i.i
  %13 = getelementptr inbounds nuw i8, ptr %12, i64 %2
  store i8 %.sink.i.i.i.i.i, ptr %13, align 1
  %indvars.iv.next.i.i.i.i.i = add nuw nsw i64 %indvars.iv.i.i.i.i.i, 1
  %exitcond.not.i.i.i.i.i = icmp eq i64 %indvars.iv.next.i.i.i.i.i, 256
  br i1 %exitcond.not.i.i.i.i.i, label %14, label %3, !llvm.loop !15

14:                                               ; preds = %3
  %indvars.iv.next5.i.i.i.i.i = add nuw nsw i64 %indvars.iv4.i.i.i.i.i, 1
  %exitcond7.not.i.i.i.i.i = icmp eq i64 %indvars.iv.next5.i.i.i.i.i, 256
  br i1 %exitcond7.not.i.i.i.i.i, label %"_ZZNSt9once_flag18_Prepare_executionC1IZSt9call_onceIZ14GetGrey8ValuesvE3$_0JEEvRS_OT_DpOT0_EUlvE_EERS5_ENKUlvE_clEv.exit", label %.preheader.i.i.i.i.i, !llvm.loop !16

"_ZZNSt9once_flag18_Prepare_executionC1IZSt9call_onceIZ14GetGrey8ValuesvE3$_0JEEvRS_OT_DpOT0_EUlvE_EERS5_ENKUlvE_clEv.exit": ; preds = %14
  ret void
}